target datalayout = "e-m:e-p270:32:32-p271:32:32-p272:64:64-i64:64-i128:128-f80:128-n8:16:32:64-S128"
target triple = "x86_64-pc-linux-gnu"

%struct._zend_libxml_globals = type { %struct._zval_struct, %struct.smart_str, ptr, %struct._zend_fcall_info_cache, i8 }
%struct._zval_struct = type { %union._zend_value, %union.anon, %union.anon.2 }
%union._zend_value = type { i64 }
%union.anon = type { i32 }
%union.anon.2 = type { i32 }
%struct.smart_str = type { ptr, i64 }
%struct._zend_fcall_info_cache = type { ptr, ptr, ptr, ptr, ptr }
%struct._zend_refcounted_h = type { i32, %union.anon.3 }
%union.anon.3 = type { i32 }
%struct._zend_execute_data = type { ptr, ptr, ptr, ptr, %struct._zval_struct, ptr, ptr, ptr, ptr }
%struct._zend_refcounted = type { %struct._zend_refcounted_h }

@libxml_globals = internal global %struct._zend_libxml_globals zeroinitializer, align 8

; Function Attrs: nounwind uwtable
define hidden void @zif_libxml_set_streams_context(ptr noundef %0, ptr noundef %1) #0 {
  %3 = alloca ptr, align 8
  %4 = alloca ptr, align 8
  %5 = alloca ptr, align 8
  %6 = alloca i1, align 1
  %7 = alloca ptr, align 8
  %8 = alloca ptr, align 8
  %9 = alloca i8, align 1
  %10 = alloca ptr, align 8
  %11 = alloca ptr, align 8
  %12 = alloca ptr, align 8
  %13 = alloca ptr, align 8
  %14 = alloca i32, align 4
  %15 = alloca i32, align 4
  %16 = alloca i32, align 4
  %17 = alloca i32, align 4
  %18 = alloca i32, align 4
  %19 = alloca ptr, align 8
  %20 = alloca ptr, align 8
  %21 = alloca i32, align 4
  %22 = alloca ptr, align 8
  %23 = alloca i8, align 1
  %24 = alloca i8, align 1
  %25 = alloca i32, align 4
  %26 = alloca ptr, align 8
  %27 = alloca ptr, align 8
  %28 = alloca ptr, align 8
  %29 = alloca i32, align 4
  store ptr %0, ptr %11, align 8
  store ptr %1, ptr %12, align 8
  br label %30

30:                                               ; preds = %2
  store i32 0, ptr %14, align 4
  store i32 1, ptr %15, align 4
  store i32 1, ptr %16, align 4
  %31 = load ptr, ptr %11, align 8
  %32 = getelementptr inbounds %struct._zend_execute_data, ptr %31, i32 0, i32 4
  %33 = getelementptr inbounds %struct._zval_struct, ptr %32, i32 0, i32 2
  %34 = load i32, ptr %33, align 4
  store i32 %34, ptr %17, align 4
  store i32 0, ptr %18, align 4
  store ptr null, ptr %20, align 8
  store i32 0, ptr %21, align 4
  store ptr null, ptr %22, align 8
  store i8 0, ptr %23, align 1
  store i8 0, ptr %24, align 1
  store i32 0, ptr %25, align 4
  br label %35

35:                                               ; preds = %30
  %36 = load i32, ptr %17, align 4
  %37 = load i32, ptr %15, align 4
  %38 = icmp ult i32 %36, %37
  %39 = xor i1 %38, true
  %40 = xor i1 %39, true
  %41 = zext i1 %40 to i32
  %42 = sext i32 %41 to i64
  %43 = icmp ne i64 %42, 0
  br i1 %43, label %53, label %44

44:                                               ; preds = %35
  %45 = load i32, ptr %17, align 4
  %46 = load i32, ptr %16, align 4
  %47 = icmp ugt i32 %45, %46
  %48 = xor i1 %47, true
  %49 = xor i1 %48, true
  %50 = zext i1 %49 to i32
  %51 = sext i32 %50 to i64
  %52 = icmp ne i64 %51, 0
  br i1 %52, label %53, label %56

53:                                               ; preds = %44, %35
  %54 = load i32, ptr %15, align 4
  %55 = load i32, ptr %16, align 4
  call void @zend_wrong_parameters_count_error(i32 noundef %54, i32 noundef %55)
  store i32 1, ptr %25, align 4
  br label %140

56:                                               ; preds = %44
  %57 = load ptr, ptr %11, align 8
  %58 = getelementptr inbounds %struct._zval_struct, ptr %57, i64 4
  store ptr %58, ptr %19, align 8
  %59 = load i32, ptr %18, align 4
  %60 = add i32 %59, 1
  store i32 %60, ptr %18, align 4
  %61 = load i32, ptr %18, align 4
  %62 = load i32, ptr %15, align 4
  %63 = icmp ule i32 %61, %62
  br i1 %63, label %69, label %64

64:                                               ; preds = %56
  %65 = load i8, ptr %24, align 1
  %66 = trunc i8 %65 to i1
  %67 = zext i1 %66 to i32
  %68 = icmp eq i32 %67, 1
  br label %69

69:                                               ; preds = %64, %56
  %70 = phi i1 [ true, %56 ], [ %68, %64 ]
  call void @llvm.assume(i1 %70)
  %71 = load i32, ptr %18, align 4
  %72 = load i32, ptr %15, align 4
  %73 = icmp ugt i32 %71, %72
  br i1 %73, label %79, label %74

74:                                               ; preds = %69
  %75 = load i8, ptr %24, align 1
  %76 = trunc i8 %75 to i1
  %77 = zext i1 %76 to i32
  %78 = icmp eq i32 %77, 0
  br label %79

79:                                               ; preds = %74, %69
  %80 = phi i1 [ true, %69 ], [ %78, %74 ]
  call void @llvm.assume(i1 %80)
  %81 = load i8, ptr %24, align 1
  %82 = trunc i8 %81 to i1
  br i1 %82, label %83, label %94

83:                                               ; preds = %79
  %84 = load i32, ptr %18, align 4
  %85 = load i32, ptr %17, align 4
  %86 = icmp ugt i32 %84, %85
  %87 = xor i1 %86, true
  %88 = xor i1 %87, true
  %89 = zext i1 %88 to i32
  %90 = sext i32 %89 to i64
  %91 = icmp ne i64 %90, 0
  br i1 %91, label %92, label %93

92:                                               ; preds = %83
  br label %140

93:                                               ; preds = %83
  br label %94

94:                                               ; preds = %93, %79
  %95 = load ptr, ptr %19, align 8
  %96 = getelementptr inbounds %struct._zval_struct, ptr %95, i32 1
  store ptr %96, ptr %19, align 8
  %97 = load ptr, ptr %19, align 8
  store ptr %97, ptr %20, align 8
  %98 = load ptr, ptr %20, align 8
  store ptr %98, ptr %7, align 8
  store ptr %13, ptr %8, align 8
  store i8 0, ptr %9, align 1
  %99 = load ptr, ptr %7, align 8
  store ptr %99, ptr %4, align 8
  %100 = load ptr, ptr %4, align 8
  %101 = getelementptr inbounds %struct._zval_struct, ptr %100, i32 0, i32 1
  %102 = load i8, ptr %101, align 8
  %103 = zext i8 %102 to i32
  %104 = icmp eq i32 %103, 9
  br i1 %104, label %105, label %108

105:                                              ; preds = %94
  %106 = load ptr, ptr %7, align 8
  %107 = load ptr, ptr %8, align 8
  store ptr %106, ptr %107, align 8
  br label %121

108:                                              ; preds = %94
  %109 = load i8, ptr %9, align 1
  %110 = trunc i8 %109 to i1
  br i1 %110, label %111, label %120

111:                                              ; preds = %108
  %112 = load ptr, ptr %7, align 8
  store ptr %112, ptr %5, align 8
  %113 = load ptr, ptr %5, align 8
  %114 = getelementptr inbounds %struct._zval_struct, ptr %113, i32 0, i32 1
  %115 = load i8, ptr %114, align 8
  %116 = zext i8 %115 to i32
  %117 = icmp eq i32 %116, 1
  br i1 %117, label %118, label %120

118:                                              ; preds = %111
  %119 = load ptr, ptr %8, align 8
  store ptr null, ptr %119, align 8
  br label %121

120:                                              ; preds = %111, %108
  store i1 false, ptr %6, align 1
  br label %122

121:                                              ; preds = %118, %105
  store i1 true, ptr %6, align 1
  br label %122

122:                                              ; preds = %121, %120
  %123 = load i1, ptr %6, align 1
  %124 = xor i1 %123, true
  %125 = xor i1 %124, true
  %126 = xor i1 %125, true
  %127 = zext i1 %126 to i32
  %128 = sext i32 %127 to i64
  %129 = icmp ne i64 %128, 0
  br i1 %129, label %130, label %131

130:                                              ; preds = %122
  store i32 14, ptr %21, align 4
  store i32 9, ptr %25, align 4
  br label %140

131:                                              ; preds = %122
  %132 = load i32, ptr %18, align 4
  %133 = load i32, ptr %16, align 4
  %134 = icmp eq i32 %132, %133
  br i1 %134, label %138, label %135

135:                                              ; preds = %131
  %136 = load i32, ptr %16, align 4
  %137 = icmp eq i32 %136, -1
  br label %138

138:                                              ; preds = %135, %131
  %139 = phi i1 [ true, %131 ], [ %137, %135 ]
  call void @llvm.assume(i1 %139)
  br label %140

140:                                              ; preds = %138, %130, %92, %53
  %141 = load i32, ptr %25, align 4
  %142 = icmp ne i32 %141, 0
  %143 = xor i1 %142, true
  %144 = xor i1 %143, true
  %145 = zext i1 %144 to i32
  %146 = sext i32 %145 to i64
  %147 = icmp ne i64 %146, 0
  br i1 %147, label %148, label %154

148:                                              ; preds = %140
  %149 = load i32, ptr %25, align 4
  %150 = load i32, ptr %18, align 4
  %151 = load ptr, ptr %22, align 8
  %152 = load i32, ptr %21, align 4
  %153 = load ptr, ptr %20, align 8
  call void @zend_wrong_parameter_error(i32 noundef %149, i32 noundef %150, ptr noundef %151, i32 noundef %152, ptr noundef %153)
  br label %189

154:                                              ; preds = %140
  br label %155

155:                                              ; preds = %154
  store ptr @libxml_globals, ptr %10, align 8
  %156 = load ptr, ptr %10, align 8
  %157 = getelementptr inbounds %struct._zval_struct, ptr %156, i32 0, i32 1
  %158 = load i8, ptr %157, align 8
  %159 = zext i8 %158 to i32
  %160 = icmp eq i32 %159, 0
  br i1 %160, label %162, label %161

161:                                              ; preds = %155
  call void @zval_ptr_dtor(ptr noundef @libxml_globals)
  br label %162

162:                                              ; preds = %161, %155
  br label %163

163:                                              ; preds = %162
  store ptr @libxml_globals, ptr %26, align 8
  %164 = load ptr, ptr %13, align 8
  store ptr %164, ptr %27, align 8
  %165 = load ptr, ptr %27, align 8
  %166 = getelementptr inbounds %struct._zval_struct, ptr %165, i32 0, i32 0
  %167 = load ptr, ptr %166, align 8
  store ptr %167, ptr %28, align 8
  %168 = load ptr, ptr %27, align 8
  %169 = getelementptr inbounds %struct._zval_struct, ptr %168, i32 0, i32 1
  %170 = load i32, ptr %169, align 8
  store i32 %170, ptr %29, align 4
  br label %171

171:                                              ; preds = %163
  %172 = load ptr, ptr %28, align 8
  %173 = load ptr, ptr %26, align 8
  %174 = getelementptr inbounds %struct._zval_struct, ptr %173, i32 0, i32 0
  store ptr %172, ptr %174, align 8
  %175 = load i32, ptr %29, align 4
  %176 = load ptr, ptr %26, align 8
  %177 = getelementptr inbounds %struct._zval_struct, ptr %176, i32 0, i32 1
  store i32 %175, ptr %177, align 8
  br label %178

178:                                              ; preds = %171
  %179 = load i32, ptr %29, align 4
  %180 = and i32 %179, 65280
  %181 = icmp ne i32 %180, 0
  br i1 %181, label %182, label %188

182:                                              ; preds = %178
  %183 = load ptr, ptr %28, align 8
  %184 = getelementptr inbounds %struct._zend_refcounted, ptr %183, i32 0, i32 0
  store ptr %184, ptr %3, align 8
  %185 = load ptr, ptr %3, align 8
  %186 = load i32, ptr %185, align 4
  %187 = add i32 %186, 1
  store i32 %187, ptr %185, align 4
  br label %188

188:                                              ; preds = %182, %178
  br label %189

189:                                              ; preds = %188, %148
  ret void
}