; Function Attrs: nounwind uwtable
define hidden void @zif_libxml_set_streams_context(ptr noundef %0, ptr nocapture readnone %1) #0 {
  %3 = getelementptr inbounds i8, ptr %0, i64 44
  %4 = load i32, ptr %3, align 4
  %cond = icmp eq i32 %4, 1
  br i1 %cond, label %6, label %5

5:                                                ; preds = %2
  tail call void @zend_wrong_parameters_count_error(i32 noundef 1, i32 noundef 1) #17
  br label %10

6:                                                ; preds = %2
  %7 = getelementptr inbounds i8, ptr %0, i64 80
  %8 = getelementptr inbounds i8, ptr %0, i64 88
  %9 = load i8, ptr %8, align 8
  %.not55 = icmp eq i8 %9, 9
  br i1 %.not55, label %11, label %10

10:                                               ; preds = %5, %6
  %.051.ph = phi i32 [ 14, %6 ], [ 0, %5 ]
  %.050.ph = phi i32 [ 9, %6 ], [ 1, %5 ]
  %.049.ph = phi ptr [ %7, %6 ], [ null, %5 ]
  %.048.ph = phi i32 [ 1, %6 ], [ 0, %5 ]
  tail call void @zend_wrong_parameter_error(i32 noundef %.050.ph, i32 noundef %.048.ph, ptr noundef null, i32 noundef %.051.ph, ptr noundef %.049.ph) #17
  br label %22

11:                                               ; preds = %6
  %12 = load i8, ptr getelementptr inbounds (%struct._zend_libxml_globals, ptr @libxml_globals, i64 0, i32 0, i32 1), align 8
  %13 = icmp eq i8 %12, 0
  br i1 %13, label %15, label %14

14:                                               ; preds = %11
  tail call void @zval_ptr_dtor(ptr noundef nonnull @libxml_globals) #17
  br label %15

15:                                               ; preds = %11, %14
  %16 = load ptr, ptr %7, align 8
  %17 = load i32, ptr %8, align 8
  store ptr %16, ptr @libxml_globals, align 8
  store i32 %17, ptr getelementptr inbounds (%struct._zend_libxml_globals, ptr @libxml_globals, i64 0, i32 0, i32 1), align 8
  %18 = and i32 %17, 65280
  %.not57 = icmp eq i32 %18, 0
  br i1 %.not57, label %22, label %19

19:                                               ; preds = %15
  %20 = load i32, ptr %16, align 4
  %21 = add i32 %20, 1
  store i32 %21, ptr %16, align 4
  br label %22

22:                                               ; preds = %15, %19, %10
  ret void
}